target datalayout = "e-m:e-p270:32:32-p271:32:32-p272:64:64-i64:64-i128:128-f80:128-n8:16:32:64-S128"
target triple = "x86_64-pc-linux-gnu"

%struct.ssl_st = type { i32, i16, i16, ptr, ptr, ptr, ptr, ptr, i32, i32, ptr, ptr, i32, i32, ptr, ptr, ptr, ptr, ptr, ptr, ptr, ptr, i32, i32, [32 x i8], ptr, ptr, ptr, ptr, ptr, ptr, ptr, i64, %struct.crypto_ex_data_st, ptr, i32, i32, i32, i32, i16, ptr, i32, i64, ptr, ptr, ptr, ptr, ptr, ptr, i32, i32, ptr, ptr, i8, i8, i32 }
%struct.crypto_ex_data_st = type { ptr }
%struct.ssl3_state_st = type { [8 x i8], [8 x i8], [32 x i8], [32 x i8], i8, i8, %struct.ssl3_buffer_st, %struct.ssl3_buffer_st, %struct.ssl3_record_st, i8, i32, i32, i32, i32, ptr, ptr, %struct.env_md_ctx_st, %struct.env_md_ctx_st, i8, i32, [2 x i8], i32, i8, i8, ptr, ptr, ptr, %struct.anon, [64 x i8], i8, [64 x i8], i8, i32, i32, ptr, i64, ptr, i64, i8, [64 x i8] }
%struct.ssl3_buffer_st = type { ptr, i16, i16, i16 }
%struct.ssl3_record_st = type { i8, i16, ptr }
%struct.env_md_ctx_st = type { ptr, ptr, ptr, ptr }
%struct.anon = type { [64 x i8], i32, [64 x i8], i32, i64, i32, ptr, i32, i32, %union.anon, %union.anon.0, i8, i32, ptr, ptr, i64, ptr, i8, i8, i8, i8, i32, i8, ptr, i64, i8, ptr, i8, i8, i8, %struct.ssl_ecdh_ctx_st, ptr, i16 }
%union.anon = type { i32 }
%union.anon.0 = type { i16 }
%struct.ssl_ecdh_ctx_st = type { ptr, ptr }
%struct.ssl_session_st = type { i32, i32, i32, i32, [48 x i8], i32, [32 x i8], i32, [32 x i8], ptr, ptr, ptr, i64, i64, i64, ptr, %struct.crypto_ex_data_st, ptr, ptr, ptr, ptr, i64, i64, ptr, i64, ptr, [32 x i8], [64 x i8], i32, i32, i8 }

; Function Attrs: nounwind uwtable
define internal i32 @ext_sni_add_serverhello(ptr noundef %0, ptr noundef %1) #0 {
  %3 = alloca i32, align 4
  %4 = alloca ptr, align 8
  %5 = alloca ptr, align 8
  store ptr %0, ptr %4, align 8, !tbaa !69
  store ptr %1, ptr %5, align 8, !tbaa !128
  %6 = load ptr, ptr %4, align 8, !tbaa !69
  %7 = getelementptr inbounds nuw %struct.ssl_st, ptr %6, i32 0, i32 54
  %8 = load i8, ptr %7, align 1
  %9 = and i8 %8, 1
  %10 = zext i8 %9 to i32
  %11 = icmp ne i32 %10, 0
  br i1 %11, label %29, label %12

12:                                               ; preds = %2
  %13 = load ptr, ptr %4, align 8, !tbaa !69
  %14 = getelementptr inbounds nuw %struct.ssl_st, ptr %13, i32 0, i32 14
  %15 = load ptr, ptr %14, align 8, !tbaa !75
  %16 = getelementptr inbounds nuw %struct.ssl3_state_st, ptr %15, i32 0, i32 27
  %17 = getelementptr inbounds nuw %struct.anon, ptr %16, i32 0, i32 11
  %18 = load i8, ptr %17, align 2
  %19 = and i8 %18, 1
  %20 = zext i8 %19 to i32
  %21 = icmp ne i32 %20, 0
  br i1 %21, label %22, label %29

22:                                               ; preds = %12
  %23 = load ptr, ptr %4, align 8, !tbaa !69
  %24 = getelementptr inbounds nuw %struct.ssl_st, ptr %23, i32 0, i32 25
  %25 = load ptr, ptr %24, align 8, !tbaa !178
  %26 = getelementptr inbounds nuw %struct.ssl_session_st, ptr %25, i32 0, i32 19
  %27 = load ptr, ptr %26, align 8, !tbaa !184
  %28 = icmp eq ptr %27, null
  br i1 %28, label %29, label %30

29:                                               ; preds = %22, %12, %2
  store i32 1, ptr %3, align 4
  br label %40

30:                                               ; preds = %22
  %31 = load ptr, ptr %5, align 8, !tbaa !128
  %32 = call i32 @CBB_add_u16(ptr noundef %31, i16 noundef zeroext 0)
  %33 = icmp ne i32 %32, 0
  br i1 %33, label %34, label %38

34:                                               ; preds = %30
  %35 = load ptr, ptr %5, align 8, !tbaa !128
  %36 = call i32 @CBB_add_u16(ptr noundef %35, i16 noundef zeroext 0)
  %37 = icmp ne i32 %36, 0
  br i1 %37, label %39, label %38

38:                                               ; preds = %34, %30
  store i32 0, ptr %3, align 4
  br label %40

39:                                               ; preds = %34
  store i32 1, ptr %3, align 4
  br label %40

40:                                               ; preds = %39, %38, %29
  %41 = load i32, ptr %3, align 4
  ret i32 %41
}