; Function Attrs: nounwind uwtable
define internal range(i32 0, 2) i32 @ext_sni_add_serverhello(ptr noundef readonly captures(none) %0, ptr noundef %1) #0 {
  %3 = getelementptr inbounds nuw i8, ptr %0, i64 385
  %4 = load i8, ptr %3, align 1
  %5 = and i8 %4, 1
  %.not = icmp eq i8 %5, 0
  br i1 %.not, label %6, label %22

6:                                                ; preds = %2
  %7 = getelementptr inbounds nuw i8, ptr %0, i64 80
  %8 = load ptr, ptr %7, align 8, !tbaa !58
  %9 = getelementptr inbounds nuw i8, ptr %8, i64 462
  %10 = load i8, ptr %9, align 2
  %11 = and i8 %10, 1
  %.not5 = icmp eq i8 %11, 0
  br i1 %.not5, label %22, label %12

12:                                               ; preds = %6
  %13 = getelementptr inbounds nuw i8, ptr %0, i64 184
  %14 = load ptr, ptr %13, align 8, !tbaa !147
  %15 = getelementptr inbounds nuw i8, ptr %14, i64 216
  %16 = load ptr, ptr %15, align 8, !tbaa !153
  %17 = icmp eq ptr %16, null
  br i1 %17, label %22, label %18

18:                                               ; preds = %12
  %19 = tail call i32 @CBB_add_u16(ptr noundef %1, i16 noundef zeroext 0) #21
  %.not6 = icmp eq i32 %19, 0
  br i1 %.not6, label %22, label %20

20:                                               ; preds = %18
  %21 = tail call i32 @CBB_add_u16(ptr noundef %1, i16 noundef zeroext 0) #21
  %.not7 = icmp ne i32 %21, 0
  %spec.select = zext i1 %.not7 to i32
  br label %22

22:                                               ; preds = %20, %18, %2, %6, %12
  %.0 = phi i32 [ 1, %12 ], [ 1, %6 ], [ 1, %2 ], [ 0, %18 ], [ %spec.select, %20 ]
  ret i32 %.0
}